; ModuleID = '57/3175.c'
source_filename = "57/3175.c"
target datalayout = "e-m:e-p270:32:32-p271:32:32-p272:64:64-i64:64-f80:128-n8:16:32:64-S128"
target triple = "x86_64-pc-linux-gnu"

%struct.anon = type { [30 x i8] }

@__const.main.a = private unnamed_addr constant [3 x i8] c"er\00", align 1
@__const.main.b = private unnamed_addr constant [3 x i8] c"ly\00", align 1
@__const.main.c = private unnamed_addr constant [4 x i8] c"ing\00", align 1
@.str = private unnamed_addr constant [3 x i8] c"%d\00", align 1
@.str.1 = private unnamed_addr constant [3 x i8] c"%s\00", align 1
@.str.2 = private unnamed_addr constant [4 x i8] c"%s\0A\00", align 1

; Function Attrs: noinline nounwind uwtable
define dso_local i32 @main() #0 {
  %1 = alloca i32, align 4
  %2 = alloca i32, align 4
  %3 = alloca i32, align 4
  %4 = alloca i32, align 4
  %5 = alloca [3 x i8], align 1
  %6 = alloca [3 x i8], align 1
  %7 = alloca [4 x i8], align 1
  %8 = alloca [2 x i8], align 1
  %9 = alloca [60 x %struct.anon], align 16
  store i32 0, i32* %1, align 4
  %10 = bitcast [3 x i8]* %5 to i8*
  call void @llvm.memcpy.p0i8.p0i8.i64(i8* align 1 %10, i8* align 1 getelementptr inbounds ([3 x i8], [3 x i8]* @__const.main.a, i32 0, i32 0), i64 3, i1 false)
  %11 = bitcast [3 x i8]* %6 to i8*
  call void @llvm.memcpy.p0i8.p0i8.i64(i8* align 1 %11, i8* align 1 getelementptr inbounds ([3 x i8], [3 x i8]* @__const.main.b, i32 0, i32 0), i64 3, i1 false)
  %12 = bitcast [4 x i8]* %7 to i8*
  call void @llvm.memcpy.p0i8.p0i8.i64(i8* align 1 %12, i8* align 1 getelementptr inbounds ([4 x i8], [4 x i8]* @__const.main.c, i32 0, i32 0), i64 4, i1 false)
  %13 = bitcast [2 x i8]* %8 to i8*
  call void @llvm.memset.p0i8.i64(i8* align 1 %13, i8 0, i64 2, i1 false)
  %14 = call i32 (i8*, ...) @__isoc99_scanf(i8* getelementptr inbounds ([3 x i8], [3 x i8]* @.str, i64 0, i64 0), i32* %2)
  store i32 0, i32* %3, align 4
  br label %15

15:                                               ; preds = %26, %0
  %16 = load i32, i32* %3, align 4
  %17 = load i32, i32* %2, align 4
  %18 = icmp slt i32 %16, %17
  br i1 %18, label %19, label %29

19:                                               ; preds = %15
  %20 = load i32, i32* %3, align 4
  %21 = sext i32 %20 to i64
  %22 = getelementptr inbounds [60 x %struct.anon], [60 x %struct.anon]* %9, i64 0, i64 %21
  %23 = getelementptr inbounds %struct.anon, %struct.anon* %22, i32 0, i32 0
  %24 = getelementptr inbounds [30 x i8], [30 x i8]* %23, i64 0, i64 0
  %25 = call i32 (i8*, ...) @__isoc99_scanf(i8* getelementptr inbounds ([3 x i8], [3 x i8]* @.str.1, i64 0, i64 0), i8* %24)
  br label %26

26:                                               ; preds = %19
  %27 = load i32, i32* %3, align 4
  %28 = add nsw i32 %27, 1
  store i32 %28, i32* %3, align 4
  br label %15

29:                                               ; preds = %15
  store i32 0, i32* %3, align 4
  br label %30

30:                                               ; preds = %121, %29
  %31 = load i32, i32* %3, align 4
  %32 = load i32, i32* %2, align 4
  %33 = icmp slt i32 %31, %32
  br i1 %33, label %34, label %124

34:                                               ; preds = %30
  store i32 0, i32* %4, align 4
  br label %35

35:                                               ; preds = %117, %34
  %36 = load i32, i32* %4, align 4
  %37 = sext i32 %36 to i64
  %38 = load i32, i32* %3, align 4
  %39 = sext i32 %38 to i64
  %40 = getelementptr inbounds [60 x %struct.anon], [60 x %struct.anon]* %9, i64 0, i64 %39
  %41 = getelementptr inbounds %struct.anon, %struct.anon* %40, i32 0, i32 0
  %42 = getelementptr inbounds [30 x i8], [30 x i8]* %41, i64 0, i64 0
  %43 = call i64 @strlen(i8* %42) #5
  %44 = icmp ult i64 %37, %43
  br i1 %44, label %45, label %120

45:                                               ; preds = %35
  %46 = load i32, i32* %3, align 4
  %47 = sext i32 %46 to i64
  %48 = getelementptr inbounds [60 x %struct.anon], [60 x %struct.anon]* %9, i64 0, i64 %47
  %49 = getelementptr inbounds %struct.anon, %struct.anon* %48, i32 0, i32 0
  %50 = getelementptr inbounds [30 x i8], [30 x i8]* %49, i64 0, i64 0
  %51 = load i32, i32* %4, align 4
  %52 = sext i32 %51 to i64
  %53 = getelementptr inbounds i8, i8* %50, i64 %52
  %54 = getelementptr inbounds [3 x i8], [3 x i8]* %5, i64 0, i64 0
  %55 = call i32 @strcmp(i8* %53, i8* %54) #5
  %56 = icmp eq i32 %55, 0
  br i1 %56, label %57, label %68

57:                                               ; preds = %45
  %58 = load i32, i32* %3, align 4
  %59 = sext i32 %58 to i64
  %60 = getelementptr inbounds [60 x %struct.anon], [60 x %struct.anon]* %9, i64 0, i64 %59
  %61 = getelementptr inbounds %struct.anon, %struct.anon* %60, i32 0, i32 0
  %62 = getelementptr inbounds [30 x i8], [30 x i8]* %61, i64 0, i64 0
  %63 = load i32, i32* %4, align 4
  %64 = sext i32 %63 to i64
  %65 = getelementptr inbounds i8, i8* %62, i64 %64
  %66 = getelementptr inbounds [2 x i8], [2 x i8]* %8, i64 0, i64 0
  %67 = call i8* @strcpy(i8* %65, i8* %66) #6
  br label %116

68:                                               ; preds = %45
  %69 = load i32, i32* %3, align 4
  %70 = sext i32 %69 to i64
  %71 = getelementptr inbounds [60 x %struct.anon], [60 x %struct.anon]* %9, i64 0, i64 %70
  %72 = getelementptr inbounds %struct.anon, %struct.anon* %71, i32 0, i32 0
  %73 = getelementptr inbounds [30 x i8], [30 x i8]* %72, i64 0, i64 0
  %74 = load i32, i32* %4, align 4
  %75 = sext i32 %74 to i64
  %76 = getelementptr inbounds i8, i8* %73, i64 %75
  %77 = getelementptr inbounds [3 x i8], [3 x i8]* %6, i64 0, i64 0
  %78 = call i32 @strcmp(i8* %76, i8* %77) #5
  %79 = icmp eq i32 %78, 0
  br i1 %79, label %80, label %91

80:                                               ; preds = %68
  %81 = load i32, i32* %3, align 4
  %82 = sext i32 %81 to i64
  %83 = getelementptr inbounds [60 x %struct.anon], [60 x %struct.anon]* %9, i64 0, i64 %82
  %84 = getelementptr inbounds %struct.anon, %struct.anon* %83, i32 0, i32 0
  %85 = getelementptr inbounds [30 x i8], [30 x i8]* %84, i64 0, i64 0
  %86 = load i32, i32* %4, align 4
  %87 = sext i32 %86 to i64
  %88 = getelementptr inbounds i8, i8* %85, i64 %87
  %89 = getelementptr inbounds [2 x i8], [2 x i8]* %8, i64 0, i64 0
  %90 = call i8* @strcpy(i8* %88, i8* %89) #6
  br label %115

91:                                               ; preds = %68
  %92 = load i32, i32* %3, align 4
  %93 = sext i32 %92 to i64
  %94 = getelementptr inbounds [60 x %struct.anon], [60 x %struct.anon]* %9, i64 0, i64 %93
  %95 = getelementptr inbounds %struct.anon, %struct.anon* %94, i32 0, i32 0
  %96 = getelementptr inbounds [30 x i8], [30 x i8]* %95, i64 0, i64 0
  %97 = load i32, i32* %4, align 4
  %98 = sext i32 %97 to i64
  %99 = getelementptr inbounds i8, i8* %96, i64 %98
  %100 = getelementptr inbounds [4 x i8], [4 x i8]* %7, i64 0, i64 0
  %101 = call i32 @strcmp(i8* %99, i8* %100) #5
  %102 = icmp eq i32 %101, 0
  br i1 %102, label %103, label %114

103:                                              ; preds = %91
  %104 = load i32, i32* %3, align 4
  %105 = sext i32 %104 to i64
  %106 = getelementptr inbounds [60 x %struct.anon], [60 x %struct.anon]* %9, i64 0, i64 %105
  %107 = getelementptr inbounds %struct.anon, %struct.anon* %106, i32 0, i32 0
  %108 = getelementptr inbounds [30 x i8], [30 x i8]* %107, i64 0, i64 0
  %109 = load i32, i32* %4, align 4
  %110 = sext i32 %109 to i64
  %111 = getelementptr inbounds i8, i8* %108, i64 %110
  %112 = getelementptr inbounds [2 x i8], [2 x i8]* %8, i64 0, i64 0
  %113 = call i8* @strcpy(i8* %111, i8* %112) #6
  br label %114

114:                                              ; preds = %103, %91
  br label %115

115:                                              ; preds = %114, %80
  br label %116

116:                                              ; preds = %115, %57
  br label %117

117:                                              ; preds = %116
  %118 = load i32, i32* %4, align 4
  %119 = add nsw i32 %118, 1
  store i32 %119, i32* %4, align 4
  br label %35

120:                                              ; preds = %35
  br label %121

121:                                              ; preds = %120
  %122 = load i32, i32* %3, align 4
  %123 = add nsw i32 %122, 1
  store i32 %123, i32* %3, align 4
  br label %30

124:                                              ; preds = %30
  store i32 0, i32* %3, align 4
  br label %125

125:                                              ; preds = %136, %124
  %126 = load i32, i32* %3, align 4
  %127 = load i32, i32* %2, align 4
  %128 = icmp slt i32 %126, %127
  br i1 %128, label %129, label %139

129:                                              ; preds = %125
  %130 = load i32, i32* %3, align 4
  %131 = sext i32 %130 to i64
  %132 = getelementptr inbounds [60 x %struct.anon], [60 x %struct.anon]* %9, i64 0, i64 %131
  %133 = getelementptr inbounds %struct.anon, %struct.anon* %132, i32 0, i32 0
  %134 = getelementptr inbounds [30 x i8], [30 x i8]* %133, i64 0, i64 0
  %135 = call i32 (i8*, ...) @printf(i8* getelementptr inbounds ([4 x i8], [4 x i8]* @.str.2, i64 0, i64 0), i8* %134)
  br label %136

136:                                              ; preds = %129
  %137 = load i32, i32* %3, align 4
  %138 = add nsw i32 %137, 1
  store i32 %138, i32* %3, align 4
  br label %125

139:                                              ; preds = %125
  ret i32 0
}

; Function Attrs: argmemonly nounwind willreturn
declare void @llvm.memcpy.p0i8.p0i8.i64(i8* noalias nocapture writeonly, i8* noalias nocapture readonly, i64, i1 immarg) #1

; Function Attrs: argmemonly nounwind willreturn
declare void @llvm.memset.p0i8.i64(i8* nocapture writeonly, i8, i64, i1 immarg) #1

declare dso_local i32 @__isoc99_scanf(i8*, ...) #2

; Function Attrs: nounwind readonly
declare dso_local i64 @strlen(i8*) #3

; Function Attrs: nounwind readonly
declare dso_local i32 @strcmp(i8*, i8*) #3

; Function Attrs: nounwind
declare dso_local i8* @strcpy(i8*, i8*) #4

declare dso_local i32 @printf(i8*, ...) #2


!llvm.module.flags = !{!0}
!llvm.ident = !{!1}

!0 = !{i32 1, !"wchar_size", i32 4}
!1 = !{!"clang version 10.0.0-4ubuntu1 "}
