; ModuleID = 'source-C-CXX/56/3175.c'
source_filename = "source-C-CXX/56/3175.c"
target datalayout = "e-m:e-p270:32:32-p271:32:32-p272:64:64-i64:64-f80:128-n8:16:32:64-S128"
target triple = "x86_64-pc-linux-gnu"

%struct.anon = type { [30 x i8] }

@__const.main.a = private unnamed_addr constant [3 x i8] c"er\00", align 1
@__const.main.b = private unnamed_addr constant [3 x i8] c"ly\00", align 1
@__const.main.c = private unnamed_addr constant [4 x i8] c"ing\00", align 1
@.str = private unnamed_addr constant [3 x i8] c"%d\00", align 1
@.str.1 = private unnamed_addr constant [3 x i8] c"%s\00", align 1

; Function Attrs: nofree nounwind sspstrong uwtable
define dso_local i32 @main() local_unnamed_addr #0 {
  %1 = alloca i32, align 4
  %2 = alloca i16, align 2
  %3 = alloca [60 x %struct.anon], align 16
  %4 = bitcast i32* %1 to i8*
  call void @llvm.lifetime.start.p0i8(i64 4, i8* nonnull %4) #6
  %5 = bitcast i16* %2 to i8*
  call void @llvm.lifetime.start.p0i8(i64 2, i8* nonnull %5) #6
  store i16 0, i16* %2, align 2
  %6 = getelementptr inbounds [60 x %struct.anon], [60 x %struct.anon]* %3, i64 0, i64 0, i32 0, i64 0
  call void @llvm.lifetime.start.p0i8(i64 1800, i8* nonnull %6) #6
  %7 = call i32 (i8*, ...) @__isoc99_scanf(i8* getelementptr inbounds ([3 x i8], [3 x i8]* @.str, i64 0, i64 0), i32* nonnull %1)
  %8 = load i32, i32* %1, align 4, !tbaa !5
  %9 = icmp sgt i32 %8, 0
  br i1 %9, label %14, label %56

10:                                               ; preds = %14
  %11 = icmp sgt i32 %19, 0
  br i1 %11, label %12, label %56

12:                                               ; preds = %10
  %13 = zext i32 %19 to i64
  br label %22

14:                                               ; preds = %0, %14
  %15 = phi i64 [ %18, %14 ], [ 0, %0 ]
  %16 = getelementptr inbounds [60 x %struct.anon], [60 x %struct.anon]* %3, i64 0, i64 %15, i32 0, i64 0
  %17 = call i32 (i8*, ...) @__isoc99_scanf(i8* getelementptr inbounds ([3 x i8], [3 x i8]* @.str.1, i64 0, i64 0), i8* nonnull %16)
  %18 = add nuw nsw i64 %15, 1
  %19 = load i32, i32* %1, align 4, !tbaa !5
  %20 = sext i32 %19 to i64
  %21 = icmp slt i64 %18, %20
  br i1 %21, label %14, label %10, !llvm.loop !9

22:                                               ; preds = %12, %45
  %23 = phi i64 [ 0, %12 ], [ %46, %45 ]
  %24 = getelementptr inbounds [60 x %struct.anon], [60 x %struct.anon]* %3, i64 0, i64 %23, i32 0, i64 0
  %25 = call i64 @strlen(i8* noundef nonnull %24) #7
  %26 = icmp eq i64 %25, 0
  br i1 %26, label %45, label %28

27:                                               ; preds = %45
  br i1 %11, label %48, label %56

28:                                               ; preds = %22, %41
  %29 = phi i64 [ %42, %41 ], [ 0, %22 ]
  %30 = getelementptr inbounds [60 x %struct.anon], [60 x %struct.anon]* %3, i64 0, i64 %23, i32 0, i64 %29
  %31 = call i32 @strcmp(i8* noundef nonnull %30, i8* noundef nonnull dereferenceable(3) getelementptr inbounds ([3 x i8], [3 x i8]* @__const.main.a, i64 0, i64 0)) #7
  %32 = icmp eq i32 %31, 0
  br i1 %32, label %39, label %33

33:                                               ; preds = %28
  %34 = call i32 @strcmp(i8* noundef nonnull %30, i8* noundef nonnull dereferenceable(3) getelementptr inbounds ([3 x i8], [3 x i8]* @__const.main.b, i64 0, i64 0)) #7
  %35 = icmp eq i32 %34, 0
  br i1 %35, label %39, label %36

36:                                               ; preds = %33
  %37 = call i32 @strcmp(i8* noundef nonnull %30, i8* noundef nonnull dereferenceable(4) getelementptr inbounds ([4 x i8], [4 x i8]* @__const.main.c, i64 0, i64 0)) #7
  %38 = icmp eq i32 %37, 0
  br i1 %38, label %39, label %41

39:                                               ; preds = %36, %33, %28
  %40 = call i8* @strcpy(i8* noundef nonnull %30, i8* noundef nonnull %5) #6
  br label %41

41:                                               ; preds = %39, %36
  %42 = add nuw nsw i64 %29, 1
  %43 = call i64 @strlen(i8* noundef nonnull %24) #7
  %44 = icmp ugt i64 %43, %42
  br i1 %44, label %28, label %45, !llvm.loop !11

45:                                               ; preds = %41, %22
  %46 = add nuw nsw i64 %23, 1
  %47 = icmp eq i64 %46, %13
  br i1 %47, label %27, label %22, !llvm.loop !12

48:                                               ; preds = %27, %48
  %49 = phi i64 [ %52, %48 ], [ 0, %27 ]
  %50 = getelementptr inbounds [60 x %struct.anon], [60 x %struct.anon]* %3, i64 0, i64 %49, i32 0, i64 0
  %51 = call i32 @puts(i8* nonnull %50)
  %52 = add nuw nsw i64 %49, 1
  %53 = load i32, i32* %1, align 4, !tbaa !5
  %54 = sext i32 %53 to i64
  %55 = icmp slt i64 %52, %54
  br i1 %55, label %48, label %56, !llvm.loop !13

56:                                               ; preds = %48, %10, %0, %27
  call void @llvm.lifetime.end.p0i8(i64 1800, i8* nonnull %6) #6
  call void @llvm.lifetime.end.p0i8(i64 2, i8* nonnull %5) #6
  call void @llvm.lifetime.end.p0i8(i64 4, i8* nonnull %4) #6
  ret i32 0
}

; Function Attrs: argmemonly mustprogress nofree nosync nounwind willreturn
declare void @llvm.lifetime.start.p0i8(i64 immarg, i8* nocapture) #1

; Function Attrs: nofree nounwind
declare noundef i32 @__isoc99_scanf(i8* nocapture noundef readonly, ...) local_unnamed_addr #2

; Function Attrs: argmemonly mustprogress nofree nounwind readonly willreturn
declare i64 @strlen(i8* nocapture) local_unnamed_addr #3

; Function Attrs: argmemonly mustprogress nofree nounwind readonly willreturn
declare i32 @strcmp(i8* nocapture, i8* nocapture) local_unnamed_addr #3

; Function Attrs: argmemonly mustprogress nofree nounwind willreturn
declare i8* @strcpy(i8* noalias returned writeonly, i8* noalias nocapture readonly) local_unnamed_addr #4

; Function Attrs: argmemonly mustprogress nofree nosync nounwind willreturn
declare void @llvm.lifetime.end.p0i8(i64 immarg, i8* nocapture) #1

; Function Attrs: nofree nounwind
declare noundef i32 @puts(i8* nocapture noundef readonly) local_unnamed_addr #5


!llvm.module.flags = !{!0, !1, !2, !3}
!llvm.ident = !{!4}

!0 = !{i32 1, !"wchar_size", i32 4}
!1 = !{i32 7, !"PIC Level", i32 2}
!2 = !{i32 7, !"PIE Level", i32 2}
!3 = !{i32 7, !"uwtable", i32 1}
!4 = !{!"clang version 13.0.0"}
!5 = !{!6, !6, i64 0}
!6 = !{!"int", !7, i64 0}
!7 = !{!"omnipotent char", !8, i64 0}
!8 = !{!"Simple C/C++ TBAA"}
!9 = distinct !{!9, !10}
!10 = !{!"llvm.loop.mustprogress"}
!11 = distinct !{!11, !10}
!12 = distinct !{!12, !10}
!13 = distinct !{!13, !10}
